target datalayout = "e-m:e-p270:32:32-p271:32:32-p272:64:64-i64:64-i128:128-f80:128-n8:16:32:64-S128"
target triple = "x86_64-pc-linux-gnu"

; Function Attrs: nounwind uwtable
define internal void @pred4x4_horizontal_add_10_c(ptr noundef %0, ptr noundef %1, i64 noundef %2) #1 {
  %4 = alloca ptr, align 8
  %5 = alloca ptr, align 8
  %6 = alloca i64, align 8
  %7 = alloca i32, align 4
  %8 = alloca ptr, align 8
  %9 = alloca ptr, align 8
  %10 = alloca i16, align 2
  store ptr %0, ptr %4, align 8, !tbaa !12
  store ptr %1, ptr %5, align 8, !tbaa !16
  store i64 %2, ptr %6, align 8, !tbaa !14
  call void @llvm.lifetime.start.p0(i64 4, ptr %7) #9
  call void @llvm.lifetime.start.p0(i64 8, ptr %8) #9
  %11 = load ptr, ptr %4, align 8, !tbaa !12
  store ptr %11, ptr %8, align 8, !tbaa !16
  call void @llvm.lifetime.start.p0(i64 8, ptr %9) #9
  %12 = load ptr, ptr %5, align 8, !tbaa !16
  store ptr %12, ptr %9, align 8, !tbaa !63
  %13 = load i64, ptr %6, align 8, !tbaa !14
  %14 = ashr i64 %13, 1
  store i64 %14, ptr %6, align 8, !tbaa !14
  store i32 0, ptr %7, align 4, !tbaa !9
  br label %15

15:                                               ; preds = %63, %3
  %16 = load i32, ptr %7, align 4, !tbaa !9
  %17 = icmp slt i32 %16, 4
  br i1 %17, label %18, label %66

18:                                               ; preds = %15
  call void @llvm.lifetime.start.p0(i64 2, ptr %10) #9
  %19 = load ptr, ptr %8, align 8, !tbaa !16
  %20 = getelementptr inbounds i16, ptr %19, i64 -1
  %21 = load i16, ptr %20, align 2, !tbaa !19
  store i16 %21, ptr %10, align 2, !tbaa !19
  %22 = load ptr, ptr %9, align 8, !tbaa !63
  %23 = getelementptr inbounds i32, ptr %22, i64 0
  %24 = load i32, ptr %23, align 4, !tbaa !9
  %25 = load i16, ptr %10, align 2, !tbaa !19
  %26 = zext i16 %25 to i32
  %27 = add nsw i32 %26, %24
  %28 = trunc i32 %27 to i16
  store i16 %28, ptr %10, align 2, !tbaa !19
  %29 = load ptr, ptr %8, align 8, !tbaa !16
  %30 = getelementptr inbounds i16, ptr %29, i64 0
  store i16 %28, ptr %30, align 2, !tbaa !19
  %31 = load ptr, ptr %9, align 8, !tbaa !63
  %32 = getelementptr inbounds i32, ptr %31, i64 1
  %33 = load i32, ptr %32, align 4, !tbaa !9
  %34 = load i16, ptr %10, align 2, !tbaa !19
  %35 = zext i16 %34 to i32
  %36 = add nsw i32 %35, %33
  %37 = trunc i32 %36 to i16
  store i16 %37, ptr %10, align 2, !tbaa !19
  %38 = load ptr, ptr %8, align 8, !tbaa !16
  %39 = getelementptr inbounds i16, ptr %38, i64 1
  store i16 %37, ptr %39, align 2, !tbaa !19
  %40 = load ptr, ptr %9, align 8, !tbaa !63
  %41 = getelementptr inbounds i32, ptr %40, i64 2
  %42 = load i32, ptr %41, align 4, !tbaa !9
  %43 = load i16, ptr %10, align 2, !tbaa !19
  %44 = zext i16 %43 to i32
  %45 = add nsw i32 %44, %42
  %46 = trunc i32 %45 to i16
  store i16 %46, ptr %10, align 2, !tbaa !19
  %47 = load ptr, ptr %8, align 8, !tbaa !16
  %48 = getelementptr inbounds i16, ptr %47, i64 2
  store i16 %46, ptr %48, align 2, !tbaa !19
  %49 = load i16, ptr %10, align 2, !tbaa !19
  %50 = zext i16 %49 to i32
  %51 = load ptr, ptr %9, align 8, !tbaa !63
  %52 = getelementptr inbounds i32, ptr %51, i64 3
  %53 = load i32, ptr %52, align 4, !tbaa !9
  %54 = add nsw i32 %50, %53
  %55 = trunc i32 %54 to i16
  %56 = load ptr, ptr %8, align 8, !tbaa !16
  %57 = getelementptr inbounds i16, ptr %56, i64 3
  store i16 %55, ptr %57, align 2, !tbaa !19
  %58 = load i64, ptr %6, align 8, !tbaa !14
  %59 = load ptr, ptr %8, align 8, !tbaa !16
  %60 = getelementptr inbounds i16, ptr %59, i64 %58
  store ptr %60, ptr %8, align 8, !tbaa !16
  %61 = load ptr, ptr %9, align 8, !tbaa !63
  %62 = getelementptr inbounds i32, ptr %61, i64 4
  store ptr %62, ptr %9, align 8, !tbaa !63
  call void @llvm.lifetime.end.p0(i64 2, ptr %10) #9
  br label %63

63:                                               ; preds = %18
  %64 = load i32, ptr %7, align 4, !tbaa !9
  %65 = add nsw i32 %64, 1
  store i32 %65, ptr %7, align 4, !tbaa !9
  br label %15, !llvm.loop !121

66:                                               ; preds = %15
  %67 = load ptr, ptr %5, align 8, !tbaa !16
  call void @llvm.memset.p0.i64(ptr align 2 %67, i8 0, i64 64, i1 false)
  call void @llvm.lifetime.end.p0(i64 8, ptr %9) #9
  call void @llvm.lifetime.end.p0(i64 8, ptr %8) #9
  call void @llvm.lifetime.end.p0(i64 4, ptr %7) #9
  ret void
}