; Function Attrs: nofree norecurse nosync nounwind memory(argmem: readwrite) uwtable
define internal void @pred4x4_horizontal_add_10_c(ptr noundef captures(none) %0, ptr noundef captures(none) %1, i64 noundef %2) #3 {
  %4 = ashr i64 %2, 1
  br label %5

5:                                                ; preds = %3, %5
  %.025 = phi ptr [ %1, %3 ], [ %27, %5 ]
  %.02124 = phi ptr [ %0, %3 ], [ %26, %5 ]
  %.02223 = phi i32 [ 0, %3 ], [ %28, %5 ]
  %6 = getelementptr inbounds i8, ptr %.02124, i64 -2
  %7 = load i16, ptr %6, align 2, !tbaa !9
  %8 = load i32, ptr %.025, align 4, !tbaa !56
  %9 = trunc i32 %8 to i16
  %10 = add i16 %7, %9
  store i16 %10, ptr %.02124, align 2, !tbaa !9
  %11 = getelementptr inbounds nuw i8, ptr %.025, i64 4
  %12 = load i32, ptr %11, align 4, !tbaa !56
  %13 = trunc i32 %12 to i16
  %14 = add i16 %10, %13
  %15 = getelementptr inbounds nuw i8, ptr %.02124, i64 2
  store i16 %14, ptr %15, align 2, !tbaa !9
  %16 = getelementptr inbounds nuw i8, ptr %.025, i64 8
  %17 = load i32, ptr %16, align 4, !tbaa !56
  %18 = trunc i32 %17 to i16
  %19 = add i16 %14, %18
  %20 = getelementptr inbounds nuw i8, ptr %.02124, i64 4
  store i16 %19, ptr %20, align 2, !tbaa !9
  %21 = getelementptr inbounds nuw i8, ptr %.025, i64 12
  %22 = load i32, ptr %21, align 4, !tbaa !56
  %23 = trunc i32 %22 to i16
  %24 = add i16 %19, %23
  %25 = getelementptr inbounds nuw i8, ptr %.02124, i64 6
  store i16 %24, ptr %25, align 2, !tbaa !9
  %26 = getelementptr inbounds i16, ptr %.02124, i64 %4
  %27 = getelementptr inbounds nuw i8, ptr %.025, i64 16
  %28 = add nuw nsw i32 %.02223, 1
  %exitcond.not = icmp eq i32 %28, 4
  br i1 %exitcond.not, label %29, label %5, !llvm.loop !117

29:                                               ; preds = %5
  tail call void @llvm.memset.p0.i64(ptr noundef nonnull align 2 dereferenceable(64) %1, i8 0, i64 64, i1 false)
  ret void
}